; Function Attrs: mustprogress uwtable
define void @_ZN7openvdb5v11_06points15StringMetaCacheC2ERKNS0_7MetaMapE(ptr noundef nonnull align 8 dereferenceable(56) %this, ptr noundef nonnull align 8 dereferenceable(56) %metadata) unnamed_addr #3 align 2 personality ptr @__gxx_personality_v0 {
entry:
  %_M_single_bucket.i.i = getelementptr inbounds i8, ptr %this, i64 48
  store ptr %_M_single_bucket.i.i, ptr %this, align 8
  %_M_bucket_count.i.i = getelementptr inbounds i8, ptr %this, i64 8
  store i64 1, ptr %_M_bucket_count.i.i, align 8
  %_M_before_begin.i.i = getelementptr inbounds i8, ptr %this, i64 16
  %_M_rehash_policy.i.i = getelementptr inbounds i8, ptr %this, i64 32
  tail call void @llvm.memset.p0.i64(ptr noundef nonnull align 8 dereferenceable(16) %_M_before_begin.i.i, i8 0, i64 16, i1 false)
  store float 1.000000e+00, ptr %_M_rehash_policy.i.i, align 8
  %_M_next_resize.i.i.i = getelementptr inbounds i8, ptr %this, i64 40
  tail call void @llvm.memset.p0.i64(ptr noundef nonnull align 8 dereferenceable(16) %_M_next_resize.i.i.i, i8 0, i64 16, i1 false)
  invoke void @_ZN7openvdb5v11_06points15StringMetaCache5resetERKNS0_7MetaMapE(ptr noundef nonnull align 8 dereferenceable(56) %this, ptr noundef nonnull align 8 dereferenceable(56) %metadata)
          to label %invoke.cont unwind label %lpad

invoke.cont:                                      ; preds = %entry
  ret void

lpad:                                             ; preds = %entry
  %0 = landingpad { ptr, i32 }
          cleanup
  tail call void @_ZNSt13unordered_mapINSt7__cxx1112basic_stringIcSt11char_traitsIcESaIcEEEjSt4hashIS5_ESt8equal_toIS5_ESaISt4pairIKS5_jEEED2Ev(ptr noundef nonnull align 8 dereferenceable(56) %this) #23
  resume { ptr, i32 } %0
}